; Function Attrs: mustprogress nofree norecurse nosync nounwind willreturn memory(argmem: write) uwtable
define hidden void @hwloc_pci_discovery_init(ptr noundef writeonly captures(none) initializes((880, 904), (920, 936)) %0) local_unnamed_addr #0 {
  %2 = getelementptr inbounds nuw i8, ptr %0, i64 880
  %3 = getelementptr inbounds nuw i8, ptr %0, i64 920
  %4 = getelementptr inbounds nuw i8, ptr %0, i64 896
  tail call void @llvm.memset.p0.i64(ptr noundef nonnull align 8 dereferenceable(16) %2, i8 0, i64 16, i1 false)
  tail call void @llvm.memset.p0.i64(ptr noundef nonnull align 8 dereferenceable(16) %3, i8 0, i64 16, i1 false)
  store i64 -1, ptr %4, align 8, !tbaa !3
  ret void
}